EXPORTS
	?getEntry@LogsCntFinder@@QBEPAVLogsCntEntry@@ABVQObject@@@Z @ 1 NONAME ; class LogsCntEntry * LogsCntFinder::getEntry(class QObject const &) const
	?deleteEntry@LogsCntFinder@@QAEXABVQObject@@@Z @ 2 NONAME ; void LogsCntFinder::deleteEntry(class QObject const &)
	?contactId@LogsCntEntry@@QBEIXZ @ 3 NONAME ; unsigned int LogsCntEntry::contactId(void) const
	?setFirstName@LogsCntEntry@@QAEXABVQString@@@Z @ 4 NONAME ; void LogsCntEntry::setFirstName(class QString const &)
	??0LogsCntEntry@@QAE@AAVQObject@@I@Z @ 5 NONAME ; LogsCntEntry::LogsCntEntry(class QObject &, unsigned int)
	?speedDial@LogsCntEntry@@QBEABVQString@@XZ @ 6 NONAME ; class QString const & LogsCntEntry::speedDial(void) const
	?predictiveSearchQuery@LogsCntFinder@@QAEXABVQString@@@Z @ 7 NONAME ; void LogsCntFinder::predictiveSearchQuery(class QString const &)
	?richText@LogsCntText@@QBE?AVQString@@V2@0@Z @ 8 NONAME ; class QString LogsCntText::richText(class QString, class QString) const
	?setLastName@LogsCntEntry@@QAEXABVQString@@@Z @ 9 NONAME ; void LogsCntEntry::setLastName(class QString const &)
	??0LogsCntFinder@@QAE@XZ @ 10 NONAME ; LogsCntFinder::LogsCntFinder(void)
	?insertEntry@LogsCntFinder@@QAEXHPAVLogsCntEntry@@@Z @ 11 NONAME ; void LogsCntFinder::insertEntry(int, class LogsCntEntry *)
	?resultsCount@LogsCntFinder@@QBEHXZ @ 12 NONAME ; int LogsCntFinder::resultsCount(void) const
	?phoneNumber@LogsCntEntry@@QBEABVLogsCntText@@XZ @ 13 NONAME ; class LogsCntText const & LogsCntEntry::phoneNumber(void) const
	?type@LogsCntEntry@@QBE?AW4EntryType@1@XZ @ 14 NONAME ; enum LogsCntEntry::EntryType LogsCntEntry::type(void) const
	?resultAt@LogsCntFinder@@QAEABVLogsCntEntry@@H@Z @ 15 NONAME ; class LogsCntEntry const & LogsCntFinder::resultAt(int)
	?lastName@LogsCntEntry@@QBEABV?$QList@VLogsCntText@@@@XZ @ 16 NONAME ; class QList<class LogsCntText> const & LogsCntEntry::lastName(void) const
	?handle@LogsCntEntry@@QBEPAVQObject@@XZ @ 17 NONAME ; class QObject * LogsCntEntry::handle(void) const
	?firstName@LogsCntEntry@@QBEABV?$QList@VLogsCntText@@@@XZ @ 18 NONAME ; class QList<class LogsCntText> const & LogsCntEntry::firstName(void) const
	??1LogsCntFinder@@UAE@XZ @ 19 NONAME ; LogsCntFinder::~LogsCntFinder(void)
	?setPhoneNumber@LogsCntEntry@@QAEXABVQString@@@Z @ 20 NONAME ; void LogsCntEntry::setPhoneNumber(class QString const &)
	?setAvatarPath@LogsCntEntry@@QAEXABVQString@@@Z @ 21 NONAME ; void LogsCntEntry::setAvatarPath(class QString const &)
	?avatarPath@LogsCntEntry@@QBEABVQString@@XZ @ 22 NONAME ; class QString const & LogsCntEntry::avatarPath(void) const
	??0LogsCntFinder@@QAE@AAVQContactManager@QtMobility@@@Z @ 23 NONAME ; LogsCntFinder::LogsCntFinder(class QtMobility::QContactManager &)

